target datalayout = "e-m:e-p270:32:32-p271:32:32-p272:64:64-i64:64-i128:128-f80:128-n8:16:32:64-S128"
target triple = "x86_64-pc-linux-gnu"

%struct.strbuf = type { i64, i64, ptr }
%struct.option = type { i32, i32, ptr, ptr, ptr, ptr, i32, ptr, i64, ptr, i64, ptr }

@.str.18 = private unnamed_addr constant [9 x i8] c"diagnose\00", align 1
@__const.cmd_diagnose.usage = private unnamed_addr constant [2 x ptr] [ptr @.str.184, ptr null], align 16
@__const.cmd_diagnose.diagnostics_root = private unnamed_addr constant %struct.strbuf { i64 0, i64 0, ptr @strbuf_slopbuf }, align 8
@.str.185 = private unnamed_addr constant [20 x i8] c"/.scalarDiagnostics\00", align 1
@.str.186 = private unnamed_addr constant [11 x i8] c"--mode=all\00", align 1
@.str.187 = private unnamed_addr constant [3 x i8] c"-s\00", align 1
@.str.188 = private unnamed_addr constant [14 x i8] c"%Y%m%d_%H%M%S\00", align 1
@.str.189 = private unnamed_addr constant [3 x i8] c"-o\00", align 1

; Function Attrs: inlinehint nounwind uwtable
define internal void @strbuf_addstr(ptr noundef %0, ptr noundef %1) #5 {
  %3 = alloca ptr, align 8
  %4 = alloca ptr, align 8
  store ptr %0, ptr %3, align 8, !tbaa !26
  store ptr %1, ptr %4, align 8, !tbaa !4
  %5 = load ptr, ptr %3, align 8, !tbaa !26
  %6 = load ptr, ptr %4, align 8, !tbaa !4
  %7 = load ptr, ptr %4, align 8, !tbaa !4
  %8 = call i64 @strlen(ptr noundef %7) #13
  call void @strbuf_add(ptr noundef %5, ptr noundef %6, i64 noundef %8)
  ret void
}

; Function Attrs: nounwind uwtable
define internal i32 @cmd_diagnose(i32 noundef %0, ptr noundef %1) #0 {
  %3 = alloca i32, align 4
  %4 = alloca ptr, align 8
  %5 = alloca [1 x %struct.option], align 16
  %6 = alloca [2 x ptr], align 16
  %7 = alloca %struct.strbuf, align 8
  %8 = alloca i32, align 4
  store i32 %0, ptr %3, align 4, !tbaa !11
  store ptr %1, ptr %4, align 8, !tbaa !13
  call void @llvm.lifetime.start.p0(i64 88, ptr %5) #12
  call void @llvm.memset.p0.i64(ptr align 16 %5, i8 0, i64 88, i1 false)
  call void @llvm.lifetime.start.p0(i64 16, ptr %6) #12
  call void @llvm.memcpy.p0.p0.i64(ptr align 16 %6, ptr align 16 @__const.cmd_diagnose.usage, i64 16, i1 false)
  call void @llvm.lifetime.start.p0(i64 24, ptr %7) #12
  call void @llvm.memcpy.p0.p0.i64(ptr align 8 %7, ptr align 8 @__const.cmd_diagnose.diagnostics_root, i64 24, i1 false)
  call void @llvm.lifetime.start.p0(i64 4, ptr %8) #12
  store i32 0, ptr %8, align 4, !tbaa !11
  %9 = load i32, ptr %3, align 4, !tbaa !11
  %10 = load ptr, ptr %4, align 8, !tbaa !13
  %11 = getelementptr inbounds [1 x %struct.option], ptr %5, i64 0, i64 0
  %12 = getelementptr inbounds [2 x ptr], ptr %6, i64 0, i64 0
  %13 = call i32 @parse_options(i32 noundef %9, ptr noundef %10, ptr noundef null, ptr noundef %11, ptr noundef %12, i32 noundef 0)
  store i32 %13, ptr %3, align 4, !tbaa !11
  %14 = load i32, ptr %3, align 4, !tbaa !11
  %15 = load ptr, ptr %4, align 8, !tbaa !13
  %16 = getelementptr inbounds [2 x ptr], ptr %6, i64 0, i64 0
  %17 = getelementptr inbounds [1 x %struct.option], ptr %5, i64 0, i64 0
  call void @setup_enlistment_directory(i32 noundef %14, ptr noundef %15, ptr noundef %16, ptr noundef %17, ptr noundef %7)
  call void @strbuf_addstr(ptr noundef %7, ptr noundef @.str.185)
  %18 = getelementptr inbounds nuw %struct.strbuf, ptr %7, i32 0, i32 2
  %19 = load ptr, ptr %18, align 8, !tbaa !23
  %20 = call i32 (ptr, ...) @run_git(ptr noundef @.str.18, ptr noundef @.str.186, ptr noundef @.str.187, ptr noundef @.str.188, ptr noundef @.str.189, ptr noundef %19, ptr noundef null)
  store i32 %20, ptr %8, align 4, !tbaa !11
  call void @strbuf_release(ptr noundef %7)
  %21 = load i32, ptr %8, align 4, !tbaa !11
  call void @llvm.lifetime.end.p0(i64 4, ptr %8) #12
  call void @llvm.lifetime.end.p0(i64 24, ptr %7) #12
  call void @llvm.lifetime.end.p0(i64 16, ptr %6) #12
  call void @llvm.lifetime.end.p0(i64 88, ptr %5) #12
  ret i32 %21
}