; Function Attrs: nounwind uwtable
define internal i32 @cmd_diagnose(i32 noundef %0, ptr noundef %1) #2 {
  %3 = alloca [1 x %struct.option], align 16
  %4 = alloca [2 x ptr], align 16
  %5 = alloca %struct.strbuf, align 8
  call void @llvm.lifetime.start.p0(i64 88, ptr nonnull %3) #18
  call void @llvm.memset.p0.i64(ptr noundef nonnull align 16 dereferenceable(88) %3, i8 0, i64 88, i1 false)
  call void @llvm.lifetime.start.p0(i64 16, ptr nonnull %4) #18
  call void @llvm.memcpy.p0.p0.i64(ptr noundef nonnull align 16 dereferenceable(16) %4, ptr noundef nonnull align 16 dereferenceable(16) @__const.cmd_diagnose.usage, i64 16, i1 false)
  call void @llvm.lifetime.start.p0(i64 24, ptr nonnull %5) #18
  call void @llvm.memcpy.p0.p0.i64(ptr noundef nonnull align 8 dereferenceable(24) %5, ptr noundef nonnull align 8 dereferenceable(24) @__const.cmd_diagnose.diagnostics_root, i64 24, i1 false)
  %6 = call i32 @parse_options(i32 noundef %0, ptr noundef %1, ptr noundef null, ptr noundef nonnull %3, ptr noundef nonnull %4, i32 noundef 0) #18
  call fastcc void @setup_enlistment_directory(i32 noundef %6, ptr noundef %1, ptr noundef %4, ptr noundef %3, ptr noundef nonnull %5)
  call void @strbuf_add(ptr noundef nonnull %5, ptr noundef nonnull @.str.185, i64 noundef 19) #18
  %7 = getelementptr inbounds nuw i8, ptr %5, i64 16
  %8 = load ptr, ptr %7, align 8, !tbaa !17
  %9 = call i32 (ptr, ...) @run_git(ptr noundef nonnull @.str.18, ptr noundef nonnull @.str.186, ptr noundef nonnull @.str.187, ptr noundef nonnull @.str.188, ptr noundef nonnull @.str.189, ptr noundef %8, ptr noundef null)
  call void @strbuf_release(ptr noundef nonnull %5) #18
  call void @llvm.lifetime.end.p0(i64 24, ptr nonnull %5) #18
  call void @llvm.lifetime.end.p0(i64 16, ptr nonnull %4) #18
  call void @llvm.lifetime.end.p0(i64 88, ptr nonnull %3) #18
  ret i32 %9
}